target datalayout = "e-m:e-p270:32:32-p271:32:32-p272:64:64-i64:64-i128:128-f80:128-n8:16:32:64-S128"
target triple = "x86_64-pc-linux-gnu"

%class.ReservedHeapSpace = type { %class.ReservedSpace.base, [7 x i8] }
%class.ReservedSpace.base = type <{ ptr, i64, i64, i64, i64, i8, [3 x i8], i32, i8 }>
%class.ReservedSpace = type <{ ptr, i64, i64, i64, i64, i8, [3 x i8], i32, i8, [7 x i8] }>

@MaxNewSize = external global i64, align 8
@MaxOldSize = external global i64, align 8
@UseLargePages = external global i8, align 1
@.str.11 = private unnamed_addr constant [77 x i8] c"The size of the object heap + VM data exceeds the maximum representable size\00", align 1
@.str.12 = private unnamed_addr constant [5 x i8] c"Heap\00", align 1
@MinHeapSize = external global i64, align 8
@_ZN6OSInfo13_vm_page_sizeE = external global i64, align 8

; Function Attrs: mustprogress nounwind uwtable
define linkonce_odr hidden noundef i64 @_ZN6OSInfo12vm_page_sizeEv() #1 comdat align 2 {
  %1 = load i64, ptr @_ZN6OSInfo13_vm_page_sizeE, align 8
  ret i64 %1
}

; Function Attrs: mustprogress nounwind uwtable
define linkonce_odr hidden noundef i64 @_ZNK13ReservedSpace4sizeEv(ptr noundef nonnull align 8 dereferenceable(49) %0) #1 comdat align 2 {
  %2 = alloca ptr, align 8
  store ptr %0, ptr %2, align 8
  %3 = load ptr, ptr %2, align 8
  %4 = getelementptr inbounds %class.ReservedSpace, ptr %3, i32 0, i32 1
  %5 = load i64, ptr %4, align 8
  ret i64 %5
}

; Function Attrs: mustprogress nounwind uwtable
define linkonce_odr hidden noundef ptr @_ZNK13ReservedSpace4baseEv(ptr noundef nonnull align 8 dereferenceable(49) %0) #1 comdat align 2 {
  %2 = alloca ptr, align 8
  store ptr %0, ptr %2, align 8
  %3 = load ptr, ptr %2, align 8
  %4 = getelementptr inbounds %class.ReservedSpace, ptr %3, i32 0, i32 0
  %5 = load ptr, ptr %4, align 8
  ret ptr %5
}

; Function Attrs: mustprogress nounwind uwtable
define linkonce_odr hidden noundef i64 @_ZNK13ReservedSpace9page_sizeEv(ptr noundef nonnull align 8 dereferenceable(49) %0) #1 comdat align 2 {
  %2 = alloca ptr, align 8
  store ptr %0, ptr %2, align 8
  %3 = load ptr, ptr %2, align 8
  %4 = getelementptr inbounds %class.ReservedSpace, ptr %3, i32 0, i32 4
  %5 = load i64, ptr %4, align 8
  ret i64 %5
}

; Function Attrs: mustprogress nounwind uwtable
define linkonce_odr hidden noundef i64 @_ZN2os12vm_page_sizeEv() #1 comdat align 2 {
  %1 = call noundef i64 @_ZN6OSInfo12vm_page_sizeEv()
  ret i64 %1
}

; Function Attrs: mustprogress nounwind uwtable
define hidden void @_ZN10SerialHeap8allocateEm(ptr dead_on_unwind noalias writable sret(%class.ReservedHeapSpace) align 8 %0, ptr noundef nonnull align 8 dereferenceable(192) %1, i64 noundef %2) #1 align 2 {
  %4 = alloca ptr, align 8
  %5 = alloca i64, align 8
  %6 = alloca i64, align 8
  %7 = alloca i64, align 8
  %8 = alloca i64, align 8
  store ptr %1, ptr %4, align 8
  store i64 %2, ptr %5, align 8
  %9 = load i8, ptr @UseLargePages, align 1
  %10 = trunc i8 %9 to i1
  br i1 %10, label %11, label %13

11:                                               ; preds = %3
  %12 = call noundef i64 @_ZN2os15large_page_sizeEv()
  br label %15

13:                                               ; preds = %3
  %14 = call noundef i64 @_ZN2os12vm_page_sizeEv()
  br label %15

15:                                               ; preds = %13, %11
  %16 = phi i64 [ %12, %11 ], [ %14, %13 ]
  store i64 %16, ptr %6, align 8
  %17 = load i64, ptr @MaxNewSize, align 8
  %18 = load i64, ptr @MaxOldSize, align 8
  %19 = add i64 %17, %18
  store i64 %19, ptr %7, align 8
  %20 = load i64, ptr %7, align 8
  %21 = load i64, ptr @MaxNewSize, align 8
  %22 = icmp ult i64 %20, %21
  br i1 %22, label %23, label %24

23:                                               ; preds = %15
  call void @_Z29vm_exit_during_initializationPKcS0_(ptr noundef @.str.11, ptr noundef null)
  br label %24

24:                                               ; preds = %23, %15
  %25 = load i64, ptr %7, align 8
  %26 = load i64, ptr %5, align 8
  call void @_ZN8Universe12reserve_heapEmm(ptr dead_on_unwind writable sret(%class.ReservedHeapSpace) align 8 %0, i64 noundef %25, i64 noundef %26)
  %27 = call noundef i64 @_ZNK13ReservedSpace9page_sizeEv(ptr noundef nonnull align 8 dereferenceable(49) %0)
  store i64 %27, ptr %8, align 8
  %28 = load i64, ptr @MinHeapSize, align 8
  %29 = load i64, ptr %7, align 8
  %30 = call noundef ptr @_ZNK13ReservedSpace4baseEv(ptr noundef nonnull align 8 dereferenceable(49) %0)
  %31 = call noundef i64 @_ZNK13ReservedSpace4sizeEv(ptr noundef nonnull align 8 dereferenceable(49) %0)
  %32 = load i64, ptr %8, align 8
  call void @_ZN2os16trace_page_sizesEPKcmmS1_mm(ptr noundef @.str.12, i64 noundef %28, i64 noundef %29, ptr noundef %30, i64 noundef %31, i64 noundef %32)
  ret void
}