; Function Attrs: mustprogress nounwind uwtable
define hidden void @_ZN10SerialHeap8allocateEm(ptr dead_on_unwind noalias writable sret(%class.ReservedHeapSpace) align 8 %0, ptr nocapture noundef nonnull readnone align 8 dereferenceable(192) %1, i64 noundef %2) local_unnamed_addr #0 align 2 {
  %4 = load i8, ptr @UseLargePages, align 1
  %5 = trunc i8 %4 to i1
  br i1 %5, label %6, label %8

6:                                                ; preds = %3
  %7 = tail call noundef i64 @_ZN2os15large_page_sizeEv() #16
  br label %8

8:                                                ; preds = %3, %6
  %9 = load i64, ptr @MaxNewSize, align 8
  %10 = load i64, ptr @MaxOldSize, align 8
  %11 = add i64 %10, %9
  %12 = icmp ult i64 %11, %9
  br i1 %12, label %13, label %14

13:                                               ; preds = %8
  tail call void @_Z29vm_exit_during_initializationPKcS0_(ptr noundef nonnull @.str.11, ptr noundef null) #16
  br label %14

14:                                               ; preds = %13, %8
  tail call void @_ZN8Universe12reserve_heapEmm(ptr dead_on_unwind writable sret(%class.ReservedHeapSpace) align 8 %0, i64 noundef %11, i64 noundef %2) #16
  %15 = getelementptr inbounds i8, ptr %0, i64 32
  %16 = load i64, ptr %15, align 8
  %17 = load i64, ptr @MinHeapSize, align 8
  %18 = load ptr, ptr %0, align 8
  %19 = getelementptr inbounds i8, ptr %0, i64 8
  %20 = load i64, ptr %19, align 8
  tail call void @_ZN2os16trace_page_sizesEPKcmmS1_mm(ptr noundef nonnull @.str.12, i64 noundef %17, i64 noundef %11, ptr noundef %18, i64 noundef %20, i64 noundef %16) #16
  ret void
}